; Function Attrs: nofree norecurse nosync nounwind memory(read, argmem: readwrite, inaccessiblemem: none) uwtable
define hidden void @initVectorFromBlock(ptr nocapture noundef writeonly %0, ptr noundef %1, i32 noundef %2) local_unnamed_addr #6 {
  %4 = icmp sgt i32 %2, 0
  br i1 %4, label %.lr.ph.preheader, label %._crit_edge

.lr.ph.preheader:                                 ; preds = %3
  %wide.trip.count = zext nneg i32 %2 to i64
  br label %.lr.ph

.lr.ph:                                           ; preds = %.lr.ph.preheader, %9
  %indvars.iv = phi i64 [ 0, %.lr.ph.preheader ], [ %indvars.iv.next, %9 ]
  %.012 = phi ptr [ %1, %.lr.ph.preheader ], [ %7, %9 ]
  %5 = getelementptr inbounds ptr, ptr %0, i64 %indvars.iv
  store ptr %.012, ptr %5, align 8
  br label %6

6:                                                ; preds = %6, %.lr.ph
  %.1 = phi ptr [ %.012, %.lr.ph ], [ %7, %6 ]
  %7 = getelementptr inbounds i8, ptr %.1, i64 1
  %8 = load i8, ptr %.1, align 1
  %.not = icmp eq i8 %8, 0
  br i1 %.not, label %9, label %6, !llvm.loop !6

9:                                                ; preds = %6
  %indvars.iv.next = add nuw nsw i64 %indvars.iv, 1
  %exitcond.not = icmp eq i64 %indvars.iv.next, %wide.trip.count
  br i1 %exitcond.not, label %._crit_edge, label %.lr.ph, !llvm.loop !8

._crit_edge:                                      ; preds = %9, %3
  %10 = sext i32 %2 to i64
  %11 = getelementptr inbounds ptr, ptr %0, i64 %10
  store ptr null, ptr %11, align 8
  ret void
}